; Function Attrs: mustprogress uwtable
define void @_ZN3net15QuicSpdySessionC2EPNS_14QuicConnectionERKNS_10QuicConfigE(ptr noundef nonnull align 8 dereferenceable(2057) %0, ptr noundef %1, ptr noundef nonnull align 8 dereferenceable(600) %2) unnamed_addr #0 align 2 personality ptr @__gxx_personality_v0 {
  tail call void @_ZN3net11QuicSessionC2EPNS_14QuicConnectionERKNS_10QuicConfigE(ptr noundef nonnull align 8 dereferenceable(2044) %0, ptr noundef %1, ptr noundef nonnull align 8 dereferenceable(600) %2)
  store ptr getelementptr inbounds nuw inrange(-16, 424) (i8, ptr @_ZTVN3net15QuicSpdySessionE, i64 16), ptr %0, align 8, !tbaa !3
  %4 = getelementptr inbounds nuw i8, ptr %0, i64 2048
  store ptr null, ptr %4, align 8, !tbaa !6
  %5 = getelementptr inbounds nuw i8, ptr %0, i64 2056
  store i8 0, ptr %5, align 8, !tbaa !11
  ret void
}